; Function Attrs: nounwind uwtable
define internal noundef i32 @plm_slurm_finalize() #0 {
  %1 = tail call i32 @prte_plm_base_comm_stop() #17
  switch i32 %1, label %2 [
    i32 -43, label %4
    i32 0, label %4
  ]

2:                                                ; preds = %0
  %3 = tail call ptr @prte_strerror(i32 noundef %1) #17
  tail call void (i32, ptr, ...) @pmix_output(i32 noundef 0, ptr noundef nonnull @.str, ptr noundef %3, ptr noundef nonnull @.str.1, i32 noundef 519) #17
  br label %4

4:                                                ; preds = %0, %0, %2
  ret i32 0
}